_ZNK3wpi9StringRef5splitERNS_15SmallVectorImplIS0_EEcib .dynsym
HAL_GetAnalogAverageBits .dynsym
HAL_GetUserCurrentFaults3V3 .dynsym
_ZN3wpi15SmallVectorBase8grow_podEPvjj .dynsym
HAL_CleanPDP .dynsym
HAL_FreeJoystickName .dynsym
_ZNSo3putEc .dynsym
_ZN3hal22createPortHandleForSPIEh .dynsym
HAL_SetSolenoid .dynsym
HAL_GetAnalogLSBWeight .dynsym
HAL_GetJoystickButtons .dynsym
HAL_GetNumSolenoidChannels .dynsym
HAL_AttachInterruptHandler .dynsym
_ZSt18uncaught_exceptionv .dynsym
HAL_FreeCounter .dynsym
c_SetDeviceNumber_PCM .dynsym
HAL_AllocateDigitalPWM .dynsym
_Znwj .dynsym
_ZNSt6chrono3_V212system_clock3nowEv .dynsym
viFindRsrc .dynsym
pthread_mutex_lock .dynsym
c_GetSolenoidStickyFault .dynsym
HAL_SetAccelerometerRange .dynsym
HAL_SetAllSolenoids .dynsym
HAL_GetCompressorCurrent .dynsym
HAL_InitializeAnalogTrigger .dynsym
c_GetCompressorCurrent .dynsym
__aeabi_uldivmod .dynsym
HAL_GetPCMSolenoidVoltageFault .dynsym
HAL_CheckDIOChannel .dynsym
HAL_GetCompressorShortedStickyFault .dynsym
HAL_SetPWMConfigRaw .dynsym
HAL_GetFilterPeriod .dynsym
HAL_SetSerialTimeout .dynsym
HAL_GetRuntimeType .dynsym
HAL_SetFPGAEncoderReverseDirection .dynsym
_ZN3hal7EncoderC2Ei21HAL_AnalogTriggerTypeiS1_b23HAL_EncoderEncodingTypePi .dynsym
HAL_SetAnalogTriggerFiltered .dynsym
HAL_SetDIODirection .dynsym
HAL_GetEncoderPeriod .dynsym
getpid .dynsym
_ZSt29_Rb_tree_insert_and_rebalancebPSt18_Rb_tree_node_baseS0_RS_ .dynsym
__aeabi_atexit .dynsym
log .dynsym
HAL_GetPWMLoopTiming .dynsym
_ZN3hal4init15InitializePortsEv .dynsym
HAL_GetAnalogSampleRate .dynsym
_ZN3hal30getAnalogNumChannelsToActivateEPi .dynsym
FRC_NetworkCommunication_CANSessionMux_getCANStatus .dynsym
HAL_ResetPDPTotalEnergy .dynsym
HAL_GetNumDigitalPWMOutputs .dynsym
_ZNK3hal7Encoder12GetDirectionEPi .dynsym
_ZN3hal4init25InitializeDigitalInternalEv .dynsym
_ZN3hal7Encoder12SetupCounterEi21HAL_AnalogTriggerTypeiS1_b23HAL_EncoderEncodingTypePi .dynsym
HAL_GetUserVoltage3V3 .dynsym
HAL_GetAnalogOversampleBits .dynsym
_ZN3PCM25GetCompressorShortedFaultERb .dynsym
_ZNK3wpi6detail19SafeThreadOwnerBase9GetThreadEv .dynsym
HAL_CheckPWMChannel .dynsym
viOpenDefaultRM .dynsym
HAL_GetPWMPosition .dynsym
HAL_GetDIO .dynsym
_ZNSt13basic_fstreamIcSt11char_traitsIcEED1Ev .dynsym
_ZN3PCM13GetCompressorERb .dynsym
_ZNSt13basic_filebufIcSt11char_traitsIcEE5closeEv .dynsym
HAL_GetNumCounters .dynsym
HAL_InitializeCounter .dynsym
HAL_TransactionI2C .dynsym
HAL_ObserveUserProgramAutonomous .dynsym
_ZN3PCM15isModuleEnabledERb .dynsym
HAL_CheckCompressorModule .dynsym
_ZN3hal12SerialHelper13QueryHubPathsEPi .dynsym
_ZN3PCMC1Eh .dynsym
_ZN3hal16initializeAnalogEPi .dynsym
_ZN3hal4init17InitializeThreadsEv .dynsym
HAL_ClearCounterDownSource .dynsym
HAL_SetEncoderMaxPeriod .dynsym
_ZN5nFPGA16nFRC_2019_19_0_26tAlarm6createEPi .dynsym
HAL_SetSerialBaudRate .dynsym
_ZN5nFPGA16nFRC_2019_19_0_26tRelay6createEPi .dynsym
HAL_SetSPIAutoTransmitData .dynsym
_ZN3wpi11raw_ostream16SetBufferAndModeEPcjNS0_10BufferKindE .dynsym
HAL_GetNumPWMChannels .dynsym
_ZNK3hal7Encoder11GetDistanceEPi .dynsym
_ZNKSt7__cxx1112basic_stringIcSt11char_traitsIcESaIcEE7compareEPKc .dynsym
free .dynsym
_ZNSt8ios_baseC2Ev .dynsym
HAL_GetPWMEliminateDeadband .dynsym
HAL_GetSystemActive .dynsym
FRC_NetworkCommunication_getJoystickButtons .dynsym
HAL_InitAccumulator .dynsym
_ZN3hal12SerialHelper21GetVISASerialPortNameB5cxx11E14HAL_SerialPortPi .dynsym
HAL_SetSPIOpts .dynsym
_ZN3hal12SerialHelper19GetOSSerialPortListB5cxx11EPi .dynsym
HAL_SetCounterMaxPeriod .dynsym
FRC_NetworkCommunication_sendError .dynsym
c_GetSolenoidVoltage .dynsym
_ZNSt8ios_baseD2Ev .dynsym
HAL_GetAnalogValue .dynsym
_ZN3hal7Encoder10SetMinRateEdPi .dynsym
_ZN5nFPGA16nFRC_2019_19_0_212tAccumulator6createEhPi .dynsym
HAL_GetJoystickName .dynsym
_ZN3hal7EncoderC1Ei21HAL_AnalogTriggerTypeiS1_b23HAL_EncoderEncodingTypePi .dynsym
HAL_SetCounterReverseDirection .dynsym
HAL_SetFPGAEncoderSamplesToAverage .dynsym
_ZNK3hal7Encoder6GetRawEPi .dynsym
HAL_GetSPIHandle .dynsym
HAL_WriteI2C .dynsym
_ZSt17__throw_bad_allocv .dynsym
FRC_NetworkCommunication_observeUserProgramTeleop .dynsym
FRC_NetworkCommunication_nUsageReporting_report .dynsym
HAL_GetJoystickDescriptor .dynsym
HAL_InitializeAnalogInputPort .dynsym
HAL_SetPWMConfig .dynsym
HAL_GetCounterDirection .dynsym
_ZN3hal4init13InitializeHALEv .dynsym
c_GetPressure .dynsym
HAL_GetNumAccumulators .dynsym
_ZN11CtreCanNodeC2Eh .dynsym
_ZNSt7__cxx1112basic_stringIcSt11char_traitsIcESaIcEE10_M_replaceEjjPKcj .dynsym
HAL_SetCompressorClosedLoopControl .dynsym
HAL_GetPDPTotalPower .dynsym
_ZN3hal7Encoder14SetIndexSourceEi21HAL_AnalogTriggerType23HAL_EncoderIndexingTypePi .dynsym
__cxa_begin_catch .dynsym
HAL_GetPDPVoltage .dynsym
HAL_SetJoystickOutputs .dynsym
_ZN5nFPGA11tDMAManagerD1Ev .dynsym
HAL_FreeEncoder .dynsym
_ZN3hal4init20InitializeCompressorEv .dynsym
c_GetSolenoidFault .dynsym
HAL_GetNumDigitalHeaders .dynsym
HAL_GetVinVoltage .dynsym
_ZN5nFPGA16nFRC_2019_19_0_27tGlobal6createEPi .dynsym
_ZN3PCM11GetPressureERb .dynsym
HAL_GetCompressorCurrentTooHighFault .dynsym
HAL_BaseInitialize .dynsym
HAL_GetPDPTotalCurrent .dynsym
_ZN3wpi3sys2fs6detail28directory_iterator_incrementERNS2_12DirIterStateE .dynsym
viSetAttribute .dynsym
HAL_GetCompressorCurrentTooHighStickyFault .dynsym
_ZN3hal6detail21UnsafeGetDigialSystemEv .dynsym
HAL_SetSPIHandle .dynsym
HAL_WaitForNotifierAlarm .dynsym
HAL_GetNumPDPChannels .dynsym
FRC_NetworkCommunication_CANSessionMux_readStreamSession .dynsym
FRC_NetworkCommunication_CANSessionMux_openStreamSession .dynsym
HAL_GetAnalogVoltsToValue .dynsym
HAL_InitializePWMPort .dynsym
HAL_SetAccelerometerActive .dynsym
_ZN5nFPGA11tDMAManager5startEPi .dynsym
_ZN3PCM17GetBatteryVoltageERf .dynsym
FRC_NetworkCommunication_getAllianceStation .dynsym
_ZN3PCM30GetCompressorNotConnectedFaultERb .dynsym
HAL_SetPWMSpeed .dynsym
_ZNSt18condition_variable10notify_oneEv .dynsym
_ZN3hal12SerialHelperC2Ev .dynsym
HAL_ResetAccumulator .dynsym
HAL_GetPort .dynsym
_ZN3hal4init13InitializeI2CEv .dynsym
HAL_GetFPGAVersion .dynsym
HAL_GetFPGAEncoder .dynsym
_ZN3hal4init15InitializeRelayEv .dynsym
HAL_SetSerialWriteMode .dynsym
HAL_GetPDPTotalEnergy .dynsym
HAL_GetEncoderDecodingScaleFactor .dynsym
printf .dynsym
_ZN3hal4init17InitializeEncoderEv .dynsym
_ZN11CtreCanNode5GetRxEjPhj .dynsym
strerror .dynsym
pthread_setschedparam .dynsym
HAL_SetSerialReadBufferSize .dynsym
_ZN3hal10HandleBaseC1Ev .dynsym
_ZSt20__throw_length_errorPKc .dynsym
HAL_GetCounter .dynsym
_ZNSt7__cxx1112basic_stringIcSt11char_traitsIcESaIcEE9_M_assignERKS4_ .dynsym
HAL_GetEncoderStopped .dynsym
_ZN3wpi13CheckedMallocEj .dynsym
c_GetNumberOfFailedControlFrames .dynsym
_ZN3hal7Encoder12SetMaxPeriodEdPi .dynsym
puts .dynsym
HAL_WaitForDSData .dynsym
HAL_SetCounterPulseLengthMode .dynsym
HAL_SetAnalogOversampleBits .dynsym
_ZNK3hal7Encoder7GetRateEPi .dynsym
c_GetCompressorFault .dynsym
HAL_SetAnalogTriggerLimitsVoltage .dynsym
HAL_SetCounterUpSourceEdge .dynsym
HAL_InitializeSerialPort .dynsym
FRC_NetworkCommunication_nAICalibration_getOffset .dynsym
viFindNext .dynsym
FRC_NetworkCommunication_getMatchInfo .dynsym
HAL_Report .dynsym
_ZN3hal12SerialHelper17SortHubPathVectorEv .dynsym
_ZSt28_Rb_tree_rebalance_for_erasePSt18_Rb_tree_node_baseRS_ .dynsym
_ZNK3hal7Encoder16GetEncodingScaleEPi .dynsym
HAL_FreeSolenoidPort .dynsym
_ZN5nFPGA11tDMAManager4stopEPi .dynsym
_ZNSirsERi .dynsym
HAL_CAN_SendMessage .dynsym
HAL_SetDIO .dynsym
_ZN3PCM18GetSolenoidVoltageERf .dynsym
HAL_SetSPIChipSelectActiveHigh .dynsym
HAL_DisableInterrupts .dynsym
RTSetCleanupProc .dynsym
HAL_SetEncoderMinRate .dynsym
HAL_DisableSerialTermination .dynsym
__cxa_guard_abort .dynsym
HAL_FreeDIOPort .dynsym
pthread_getschedparam .dynsym
HAL_GetNumDigitalChannels .dynsym
prctl .dynsym
HAL_CheckAnalogInputChannel .dynsym
__cxa_guard_release .dynsym
HAL_GetAnalogGyroCenter .dynsym
_ZN3hal15remapSPIChannelEi .dynsym
HAL_GetNumPWMHeaders .dynsym
HAL_SetPWMPeriodScale .dynsym
EDVR_CreateReference .dynsym
_ZN3hal7EncoderD1Ev .dynsym
_ZSt20__throw_system_errori .dynsym
nanosleep .dynsym
HAL_IsAnyPulsing .dynsym
HAL_GetFilterSelect .dynsym
HAL_ReadSPIAutoReceivedData .dynsym
HAL_GetUserVoltage6V .dynsym
viSetBuf .dynsym
memset .dynsym
pthread_self .dynsym
_ZNSo5flushEv .dynsym
HAL_GetEncoderEncodingScale .dynsym
_ZNK3hal7Encoder10GetStoppedEPi .dynsym
_ZdlPvj .dynsym
_ZSt18_Rb_tree_incrementPSt18_Rb_tree_node_base .dynsym
_ZSt19__throw_logic_errorPKc .dynsym
_ZN3hal6detail18ComputeDigitalMaskEiPi .dynsym
HAL_GetPDPChannelCurrent .dynsym
HAL_GetNumPCMModules .dynsym
_fini .dynsym
viRead .dynsym
c_GetCompressorStickyFault .dynsym
_ZN3hal15remapMXPChannelEi .dynsym
HAL_GetAccumulatorCount .dynsym
HAL_ObserveUserProgramStarting .dynsym
HAL_ReadSerial .dynsym
_ZN3hal4init24InitializeAnalogInternalEv .dynsym
NetCommRPCProxy_SetOccurFuncPointer .dynsym
HAL_SetSerialParity .dynsym
HAL_InitializeI2C .dynsym
HAL_ForceSPIAutoRead .dynsym
_ZN3wpi6detail19SafeThreadOwnerBaseD2Ev .dynsym
HAL_GetAnalogAverageValue .dynsym
_ZN3hal4init13RunInitializeEv .dynsym
setlinebuf .dynsym
close .dynsym
c_GetSolenoid .dynsym
HAL_ReadCANPacketTimeout .dynsym
HAL_FireOneShot .dynsym
viWrite .dynsym
_ZN3hal12SerialHelperC1Ev .dynsym
HAL_SetCounterUpSource .dynsym
_Znaj .dynsym
_ZN3PCM20GetClosedLoopControlERb .dynsym
HAL_GetEncoderRate .dynsym
HAL_GetSystemClockTicksPerMicrosecond .dynsym
_ZNK3hal7Encoder9GetPeriodEPi .dynsym
_ZN11CtreCanNodeD1Ev .dynsym
HAL_GetAnalogTriggerOutput .dynsym
_ZN3wpi11raw_ostream5writeEh .dynsym
HAL_GetCompressorShortedFault .dynsym
HAL_GetPWMRaw .dynsym
HAL_CheckSolenoidChannel .dynsym
_ZN3hal4init13InitializePWMEv .dynsym
_ZN5nFPGA11tDMAManagerC1EjjPi .dynsym
HAL_SetAnalogGyroParameters .dynsym
HAL_CleanCAN .dynsym
pow .dynsym
_ZN3hal4init19InitialzeInterruptsEv .dynsym
_ZN5nFPGA16nFRC_2019_19_0_214tAnalogTrigger6createEhPi .dynsym
HAL_SetSPIChipSelectActiveLow .dynsym
_ZN5nFPGA17tInterruptManager7disableEPi .dynsym
_ZN5nFPGA16nFRC_2019_19_0_210tInterrupt6createEhPi .dynsym
_ZN11CtreCanNode10RegisterRxEj .dynsym
memmove .dynsym
HAL_GetAnalogVoltage .dynsym
__aeabi_d2lz .dynsym
_ZN3hal12SerialHelper14CoiteratedSortERN3wpi15SmallVectorImplINS1_11SmallStringILj16EEEEE .dynsym
HAL_SetAnalogGyroVoltsPerDegreePerSecond .dynsym
HAL_GetFPGAEncoderStopped .dynsym
_ZN3PCMC2Eh .dynsym
_ZN3PCM15GetAllSolenoidsERh .dynsym
_ZN3hal10HandleBaseC2Ev .dynsym
FRC_NetworkCommunication_CANSessionMux_sendMessage .dynsym
HAL_SetupAnalogGyro .dynsym
viOpen .dynsym
_ZN3hal4init22InitializeAnalogOutputEv .dynsym
FRC_NetworkCommunication_CANSessionMux_receiveMessage .dynsym
HAL_GetNumRelayChannels .dynsym
HAL_GetPWMSpeed .dynsym
FRC_NetworkCommunication_setJoystickOutputs .dynsym
HAL_SetAnalogAverageBits .dynsym
_ZNSt13basic_filebufIcSt11char_traitsIcEE4openEPKcSt13_Ios_Openmode .dynsym
kill .dynsym
ioctl .dynsym
HAL_SetAnalogTriggerAveraged .dynsym
_ZN3hal7Encoder19SetSamplesToAverageEiPi .dynsym
HAL_CancelNotifierAlarm .dynsym
_ZN3hal4init23InitializeAnalogTriggerEv .dynsym
_ZN5nFPGA17tInterruptManagerC1EjbPi .dynsym
clock_gettime .dynsym
HAL_InitializeNotifier .dynsym
HAL_GetEncoder .dynsym
_ZN3PCM38GetCompressorCurrentTooHighStickyFaultERb .dynsym
HAL_SetSerialStopBits .dynsym
viFlush .dynsym
HAL_GetCounterPeriod .dynsym
HAL_SetPWMRaw .dynsym
_ZN3hal4init27InitializeAnalogAccumulatorEv .dynsym
_ZdlPv .dynsym
_ZN3hal4init19InitializeConstantsEv .dynsym
_ZN3PCM30GetNumberOfFailedControlFramesERt .dynsym
__assert_fail .dynsym
_ZN3wpi4outsEv .dynsym
HAL_GetUserCurrent6V .dynsym
HAL_SetOneShotDuration .dynsym
_ZN3PCM32GetCompressorCurrentTooHighFaultERb .dynsym
HAL_SetCurrentThreadPriority .dynsym
HAL_InitializeRelayPort .dynsym
HAL_SendError .dynsym
_ZN11CtreCanNode14ChangeTxPeriodEjj .dynsym
NumericArrayResize .dynsym
HAL_GetPCMSolenoidVoltageStickyFault .dynsym
_ZN3hal7Encoder19SetDistancePerPulseEdPi .dynsym
HAL_EnableSerialTermination .dynsym
_ZN5nFPGA17tInterruptManager5watchEibPi .dynsym
HAL_CAN_ReadStreamSession .dynsym
HAL_GetNumAnalogInputs .dynsym
HAL_ObserveUserProgramDisabled .dynsym
HAL_GetUserActive3V3 .dynsym
_ZN3wpi6detail19SafeThreadOwnerBase5StartESt10shared_ptrINS_10SafeThreadEE .dynsym
_ZN3hal4init23InitializeAccelerometerEv .dynsym
HAL_FreeDigitalPWM .dynsym
sched_get_priority_min .dynsym
HAL_CAN_ReceiveMessage .dynsym
HAL_GetUserCurrent5V .dynsym
HAL_CheckPDPModule .dynsym
c_SetAllSolenoids .dynsym
_ZN3PCM20SetOneShotDurationMsEhj .dynsym
HAL_GetFPGAButton .dynsym
_ZN3PCM11GetSolenoidEhRb .dynsym
open .dynsym
_ZNKSt9type_infoeqERKS_ .dynsym
_ZNSt13basic_filebufIcSt11char_traitsIcEEC1Ev .dynsym
_ZN3hal4init13InitializeSPIEv .dynsym
HAL_SetFilterPeriod .dynsym
HAL_LatchPWMZero .dynsym
HAL_FlushSerial .dynsym
HAL_StartSPIAutoTrigger .dynsym
_ZSt18_Rb_tree_decrementPSt18_Rb_tree_node_base .dynsym
HAL_GetCompressorNotConnectedStickyFault .dynsym
HAL_StopCANPacketRepeating .dynsym
HAL_SetAnalogTriggerLimitsRaw .dynsym
_ZN3hal10fpga_clock3nowEv .dynsym
HAL_GetEncoderRaw .dynsym
HAL_GetAllianceStation .dynsym
HAL_SetDigitalPWMRate .dynsym
HAL_ResetCounter .dynsym
HAL_GetNumAnalogTriggers .dynsym
HAL_GetVinCurrent .dynsym
_ZN3PCM17ClearStickyFaultsEv .dynsym
HAL_SetEncoderDistancePerPulse .dynsym
HAL_CheckPDPChannel .dynsym
c_GetHardwareFault .dynsym
HAL_FreeRelayPort .dynsym
HAL_InitializeCompressor .dynsym
HAL_FreePWMPort .dynsym
_init .dynsym
HAL_GetUserActive6V .dynsym
__cxa_end_cleanup .dynsym
HAL_CleanAnalogTrigger .dynsym
HAL_ResetFPGAEncoder .dynsym
HAL_SetRelay .dynsym
_ZN3hal17initializeDigitalEPi .dynsym
_ZN5nFPGA16nFRC_2019_19_0_24tSPI6createEPi .dynsym
c_PCM_Init .dynsym
_ZNKSt5ctypeIcE13_M_widen_initEv .dynsym
HAL_InitializeDIOPort .dynsym
HAL_GetAnalogAverageVoltage .dynsym
HAL_WriteSerial .dynsym
HAL_GetBrownedOut .dynsym
_ZNK3wpi5Twine8toVectorERNS_15SmallVectorImplIcEE .dynsym
HAL_GetErrorMessage .dynsym
__aeabi_ldivmod .dynsym
HAL_SetAccumulatorDeadband .dynsym
HAL_GetAllSolenoids .dynsym
HAL_SetPWMEliminateDeadband .dynsym
HAL_GetUserCurrentFaults5V .dynsym
HAL_GetControlWord .dynsym
FRC_NetworkCommunication_getJoystickDesc .dynsym
_ZN3hal18remapMXPPWMChannelEi .dynsym
HAL_SetSPISpeed .dynsym
HAL_CheckSolenoidModule .dynsym
HAL_GetFPGARevision .dynsym
_ZNSo5seekpESt4fposI11__mbstate_tE .dynsym
HAL_CAN_GetCANStatus .dynsym
HAL_SetInterruptUpSourceEdge .dynsym
HAL_ReadInterruptRisingTimestamp .dynsym
FRC_NetworkCommunication_observeUserProgramAutonomous .dynsym
_ZN11CtreCanNodeC1Eh .dynsym
c_GetClosedLoopControl .dynsym
__cxa_atexit .dynsym
HAL_GetEncoderDistance .dynsym
_ZN3hal4init18InitializeSolenoidEv .dynsym
HAL_ClearSerial .dynsym
HAL_FreeAnalogOutputPort .dynsym
HAL_GetEncoderDirection .dynsym
HAL_GetJoystickAxes .dynsym
HAL_SetDigitalPWMOutputChannel .dynsym
HAL_GetPDPTemperature .dynsym
HAL_GetFPGATime .dynsym
HAL_ReleaseDSMutex .dynsym
c_SetClosedLoopControl .dynsym
HAL_GetAnalogTriggerInWindow .dynsym
HAL_GetMatchTime .dynsym
_ZN3PCM11SetSolenoidEhb .dynsym
_ZN5nFPGA11tDMAManager4readEPjjjS1_Pi .dynsym
HAL_GetFPGAEncoderSamplesToAverage .dynsym
_ZSt16__throw_bad_castv .dynsym
viClear .dynsym
c_GetCompressor .dynsym
HAL_GetFPGAEncoderPeriod .dynsym
_ZdaPv .dynsym
HAL_SetEncoderSamplesToAverage .dynsym
HAL_InitializeDriverStation .dynsym
HAL_FreeAnalogInputPort .dynsym
HAL_SetCounterDownSource .dynsym
HAL_GetJoystickAxisType .dynsym
HAL_FreeSPIAuto .dynsym
_ZN11CtreCanNode10RegisterTxEjj .dynsym
HAL_CleanInterrupts .dynsym
HAL_CheckAnalogModule .dynsym
_ZN3wpi10SetNowImplEPFyvE .dynsym
HAL_ReadCANPeriodicPacket .dynsym
FRC_NetworkCommunication_getJoystickAxes .dynsym
c_IsSolenoidBlacklisted .dynsym
_ZN3PCM21IsSolenoidBlacklistedEhRb .dynsym
_ZNSt6chrono3_V212steady_clock3nowEv .dynsym
_ZN3hal7Encoder5ResetEPi .dynsym
_ZN3hal7EncoderD2Ev .dynsym
HAL_SetFPGAEncoderIndexSource .dynsym
_ZN3hal7Encoder19SetReverseDirectionEbPi .dynsym
HAL_SetAnalogSampleRate .dynsym
HAL_SetEncoderReverseDirection .dynsym
_ZNSt9basic_iosIcSt11char_traitsIcEE4initEPSt15basic_streambufIcS1_E .dynsym
viGetAttribute .dynsym
HAL_CAN_OpenStreamSession .dynsym
HAL_UpdateNotifierAlarm .dynsym
HAL_GetMatchInfo .dynsym
HAL_SetCounterExternalDirectionMode .dynsym
HAL_InitializeSPI .dynsym
HAL_GetAccelerometerX .dynsym
_ZN3hal4init20InitializeAnalogGyroEv .dynsym
_ZNSt7__cxx1112basic_stringIcSt11char_traitsIcESaIcEEC1EPKcRKS3_ .dynsym
_ZN3wpi3sys2fs12is_directoryERKNS1_17basic_file_statusE .dynsym
_ZN3hal4init21InitializeAnalogInputEv .dynsym
HAL_GetNumEncoders .dynsym
HAL_IsAccumulatorChannel .dynsym
HAL_GetSerialBytesReceived .dynsym
_ZN5nFPGA16nFRC_2019_19_0_24tPWM6createEPi .dynsym
HAL_ReadCANPacketNew .dynsym
HAL_SetCounterDownSourceEdge .dynsym
HAL_GetCounterSamplesToAverage .dynsym
_ZN3wpi3sys2fs6detail28directory_iterator_constructERNS2_12DirIterStateENS_9StringRefEb .dynsym
HAL_WriteSPI .dynsym
HAL_GetCurrentThreadPriority .dynsym
HAL_SetPWMPosition .dynsym
_ZNSt18condition_variableC1Ev .dynsym
HAL_GetAnalogTriggerTriggerState .dynsym
HAL_CheckAnalogOutputChannel .dynsym
_ZNSt6localeD1Ev .dynsym
HAL_SetCounterSemiPeriodMode .dynsym
HAL_GetUserActive5V .dynsym
_ZNK3wpi3sys2fs15directory_entry6statusEv .dynsym
HAL_GetNumRelayHeaders .dynsym
HAL_ClearAllPCMStickyFaults .dynsym
_ZN3hal4init18InitializeNotifierEv .dynsym
_ZN5nFPGA17tInterruptManagerD1Ev .dynsym
HAL_SetSerialFlowControl .dynsym
HAL_StopSPIAuto .dynsym
HAL_GetFPGAEncoderDirection .dynsym
HAL_InitializeFPGAEncoder .dynsym
FRC_NetworkCommunication_observeUserProgramDisabled .dynsym
__aeabi_uidiv .dynsym
HAL_GetSPIAutoDroppedCount .dynsym
c_GetAllSolenoids .dynsym
HAL_CloseSerial .dynsym
HAL_GetPortWithModule .dynsym
_ZN3hal12createHandleEsNS_14HAL_HandleEnumEs .dynsym
HAL_GetAnalogGyroAngle .dynsym
_ZN3wpi11raw_ostream14flush_nonemptyEv .dynsym
_ZN5nFPGA16nFRC_2019_19_0_23tAI6createEPi .dynsym
HAL_EnableInterrupts .dynsym
HAL_FreeAnalogGyro .dynsym
_ZN3PCM20SetClosedLoopControlEb .dynsym
HAL_InitializeSerialPortDirect .dynsym
__cxa_rethrow .dynsym
setNewDataOccurRef .dynsym
_ZN3PCM36GetCompressorNotConnectedStickyFaultERb .dynsym
_ZN3hal18remapDigitalSourceEi21HAL_AnalogTriggerTypeRhS1_Rb .dynsym
HAL_IsPulsing .dynsym
c_GetSolenoidBlackList .dynsym
_ZN3hal10HandleBase18ResetGlobalHandlesEv .dynsym
HAL_SetCounterUpdateWhenEmpty .dynsym
HAL_ReadI2C .dynsym
memcpy .dynsym
HAL_ClearCounterUpSource .dynsym
_ZN3hal12SerialHelper21GetVISASerialPortListB5cxx11EPi .dynsym
FRC_NetworkCommunication_getJoystickPOVs .dynsym
HAL_GetRelay .dynsym
HAL_GetNumInterrupts .dynsym
HAL_WriteCANPacket .dynsym
HAL_GetUserCurrent3V3 .dynsym
malloc .dynsym
HAL_SetAnalogOutput .dynsym
HAL_CleanNotifier .dynsym
HAL_InitializePDP .dynsym
HAL_Initialize .dynsym
HAL_GetEncoderFPGAIndex .dynsym
strlen .dynsym
_ZN3PCM20GetCompressorCurrentERf .dynsym
_ZN3hal4init20InitializeSerialPortEv .dynsym
_ZN3PCM19FireOneShotSolenoidEh .dynsym
_ZN3hal4init15InitializePowerEv .dynsym
_ZNK3hal7Encoder3GetEPi .dynsym
_ZN3hal12SerialHelper15GetIndexForPortE14HAL_SerialPortPi .dynsym
_ZN3hal10HandleBase12ResetHandlesEv .dynsym
HAL_Pulse .dynsym
_ZN3hal4init13InitializeCANEv .dynsym
HAL_GetEncoderSamplesToAverage .dynsym
HAL_GetEncoderEncodingType .dynsym
_ZNSt13basic_filebufIcSt11char_traitsIcEED1Ev .dynsym
HAL_GetAnalogOutput .dynsym
HAL_GetAnalogGyroOffset .dynsym
HAL_IsNewControlData .dynsym
setNewDataSem .dynsym
HAL_CheckRelayChannel .dynsym
_ZN5nFPGA16nFRC_2019_19_0_212tSysWatchdog6createEPi .dynsym
_ZN3PCM22GetSolenoidStickyFaultERb .dynsym
c_ClearStickyFaults .dynsym
c_SetSolenoid .dynsym
FRC_NetworkCommunication_CANSessionMux_closeStreamSession .dynsym
HAL_GetCounterStopped .dynsym
HAL_ObserveUserProgramTeleop .dynsym
_ZN3hal4init17InitializeCounterEv .dynsym
_ZN5nFPGA17tInterruptManager15registerHandlerEPFvjPvES1_Pi .dynsym
HAL_GetAccelerometerY .dynsym
_ZN5nFPGA16nFRC_2019_19_0_26tAccel6createEPi .dynsym
HAL_InitializeAnalogGyro .dynsym
HAL_ObserveUserProgramTest .dynsym
_ZN11CtreCanNode7FlushTxEj .dynsym
_ZNSt18condition_variable4waitERSt11unique_lockISt5mutexE .dynsym
HAL_GetEncoderDistancePerPulse .dynsym
HAL_SetCounterSamplesToAverage .dynsym
HAL_GetThreadPriority .dynsym
_ZN3hal4init13InitializePDPEv .dynsym
__aeabi_unwind_cpp_pr1 .dynsym
FRC_NetworkCommunication_observeUserProgramStarting .dynsym
HAL_CAN_CloseStreamSession .dynsym
HAL_SetCounterAverageSize .dynsym
HAL_SetDigitalPWMDutyCycle .dynsym
HAL_GetAnalogOffset .dynsym
_ZN3PCMD1Ev .dynsym
__cxa_end_catch .dynsym
_ZN3hal26getAnalogNumActiveChannelsEPi .dynsym
_ZN3PCM20GetSolenoidBlackListERh .dynsym
HAL_GetSolenoid .dynsym
HAL_InitializeAnalogOutputPort .dynsym
__gxx_personality_v0 .dynsym
HAL_GetAccumulatorValue .dynsym
_ZN11CtreCanNode10RegisterTxEjjjPKh .dynsym
HAL_GetPCMSolenoidBlackList .dynsym
HAL_SetSerialWriteBufferSize .dynsym
FRC_NetworkCommunication_nAICalibration_getLSBWeight .dynsym
_ZNK3hal7Encoder19DecodingScaleFactorEv .dynsym
_ZN11CtreCanNodeD2Ev .dynsym
HAL_SetFPGAEncoderMaxPeriod .dynsym
HAL_GetDIODirection .dynsym
sched_get_priority_max .dynsym
HAL_SetCounterUpDownMode .dynsym
HAL_ResetAnalogGyro .dynsym
HAL_SetSerialDataBits .dynsym
_ZN3hal4init13InitializeDIOEv .dynsym
__aeabi_l2d .dynsym
strcmp .dynsym
FRC_NetworkCommunication_Reserve .dynsym
HAL_TransactionSPI .dynsym
_ZN5nFPGA16nFRC_2019_19_0_23tAO6createEPi .dynsym
HAL_GetJoystickIsXbox .dynsym
HAL_ClearPDPStickyFaults .dynsym
FRC_NetworkCommunication_getMatchTime .dynsym
_ZNSt9basic_iosIcSt11char_traitsIcEE5clearESt12_Ios_Iostate .dynsym
HAL_SetAnalogGyroDeadband .dynsym
c_GetBatteryVoltage .dynsym
_ZN3hal12SerialHelper19GetOSSerialPortNameB5cxx11E14HAL_SerialPortPi .dynsym
_ZNSt18condition_variable10notify_allEv .dynsym
_ZN5nFPGA16nFRC_2019_19_0_26tPower6createEPi .dynsym
HAL_GetAccumulatorOutput .dynsym
HAL_GetAnalogGyroRate .dynsym
_ZNSt7__cxx1112basic_stringIcSt11char_traitsIcESaIcEE9_M_createERjj .dynsym
_ZN3PCM15SetAllSolenoidsEh .dynsym
_ZNSolsEi .dynsym
_ZN3PCM16GetSolenoidFaultERb .dynsym
HAL_InitializeCAN .dynsym
HAL_SetEncoderIndexSource .dynsym
HAL_AttachInterruptHandlerThreaded .dynsym
_ZN5nFPGA16nFRC_2019_19_0_28tEncoder6createEhPi .dynsym
FRC_NetworkCommunication_getControlWord .dynsym
HAL_InitializeEncoder .dynsym
__errno_location .dynsym
_ZN3wpi3sys2fs6detail27directory_iterator_destructERNS2_12DirIterStateE .dynsym
HAL_WriteCANPacketRepeating .dynsym
HAL_GetJoystickPOVs .dynsym
HAL_StartSPIAutoRate .dynsym
memchr .dynsym
strncpy .dynsym
HAL_FreeFPGAEncoder .dynsym
HAL_SetPWMDisabled .dynsym
FRC_NetworkCommunication_observeUserProgramTest .dynsym
HAL_CalibrateAnalogGyro .dynsym
HAL_GetCompressorNotConnectedFault .dynsym
HAL_InitializeInterrupts .dynsym
_ZN3hal10HandleBaseD2Ev .dynsym
HAL_SetThreadPriority .dynsym
_ZN3hal4init21InitializePCMInternalEv .dynsym
memcmp .dynsym
HAL_SetFilterSelect .dynsym
HAL_GetPWMConfigRaw .dynsym
_ZN3wpi11raw_ostream5writeEPKcj .dynsym
_ZN3hal30setAnalogNumChannelsToActivateEi .dynsym
HAL_WaitForDSDataTimeout .dynsym
_ZN3hal6detail17UnsafeGetDIOMutexEv .dynsym
HAL_GetPWMCycleStartTime .dynsym
__aeabi_unwind_cpp_pr0 .dynsym
_ZN3wpi6detail19SafeThreadProxyBaseC2ESt10shared_ptrINS_10SafeThreadEE .dynsym
_ZN11CtreCanNode12UnregisterTxEj .dynsym
_ZN3PCMD2Ev .dynsym
__cxa_guard_acquire .dynsym
_ZNSt18condition_variableD1Ev .dynsym
_ZN5nFPGA17tInterruptManager6enableEPi .dynsym
HAL_GetUserVoltage5V .dynsym
HAL_ReadInterruptFallingTimestamp .dynsym
_ZN3hal10HandleBaseD1Ev .dynsym
HAL_InitSPIAuto .dynsym
HAL_GetAccelerometerZ .dynsym
_ZN3PCM16GetHardwareFaultERb .dynsym
_ZN5nFPGA16nFRC_2019_19_0_24tDIO6createEPi .dynsym
_ZN3hal19setAnalogSampleRateEdPi .dynsym
_ZN3wpi11raw_ostreamlsEd .dynsym
HAL_GetNumAnalogOutputs .dynsym
_ZN3hal13initializePCMEiPi .dynsym
_ZNSt12__basic_fileIcED1Ev .dynsym
HAL_RequestInterrupts .dynsym
HAL_GetUserCurrentFaults6V .dynsym
_ZN5nFPGA16nFRC_2019_19_0_28tCounter6createEhPi .dynsym
_ZN3hal4init16InitializeCANAPIEv .dynsym
_ZN3hal4init21InitializeFPGAEncoderEv .dynsym
HAL_ReadSPI .dynsym
HAL_SetAccumulatorCenter .dynsym
HAL_StopNotifier .dynsym
HAL_ReadCANPacketLatest .dynsym
HAL_GetJoystickType .dynsym
__cxa_pure_virtual .dynsym
HAL_InitializeSolenoidPort .dynsym
HAL_WaitForInterrupt .dynsym
HAL_GetNumPDPModules .dynsym
_ZN3hal16createPortHandleEhh .dynsym
_ZN3PCM31GetCompressorShortedStickyFaultERb .dynsym
_ZN3wpi11raw_ostreamlsEl .dynsym
__tls_get_addr .dynsym
HAL_CloseSPI .dynsym
pthread_mutex_unlock .dynsym
_ZNK3hal7Encoder19GetSamplesToAverageEPi .dynsym
HAL_GetCompressorClosedLoopControl .dynsym
HAL_GetCompressorPressureSwitch .dynsym
_ZN3hal4init26InitializeFRCDriverStationEv .dynsym
HAL_ResetEncoder .dynsym
HAL_CloseI2C .dynsym
HAL_GetCompressor .dynsym
_ZN3wpi4errsEv .dynsym
_ZNK3wpi9StringRef4findES0_j .dynsym
viClose .dynsym
